target datalayout = "e-m:e-p270:32:32-p271:32:32-p272:64:64-i64:64-i128:128-f80:128-n8:16:32:64-S128"
target triple = "x86_64-pc-linux-gnu"

%"struct.Yosys::RTLIL::IdString" = type { i32 }
%"struct.Yosys::AigNode" = type { %"struct.Yosys::RTLIL::IdString", i32, i8, i32, i32, %"class.std::vector" }
%"class.std::vector" = type { %"struct.std::_Vector_base" }
%"struct.std::_Vector_base" = type { %"struct.std::_Vector_base<std::pair<Yosys::RTLIL::IdString, int>, std::allocator<std::pair<Yosys::RTLIL::IdString, int>>>::_Vector_impl" }
%"struct.std::_Vector_base<std::pair<Yosys::RTLIL::IdString, int>, std::allocator<std::pair<Yosys::RTLIL::IdString, int>>>::_Vector_impl" = type { %"struct.std::_Vector_base<std::pair<Yosys::RTLIL::IdString, int>, std::allocator<std::pair<Yosys::RTLIL::IdString, int>>>::_Vector_impl_data" }
%"struct.std::_Vector_base<std::pair<Yosys::RTLIL::IdString, int>, std::allocator<std::pair<Yosys::RTLIL::IdString, int>>>::_Vector_impl_data" = type { ptr, ptr, ptr }

; Function Attrs: mustprogress nounwind uwtable
define linkonce_odr void @_ZNSt15__new_allocatorISt4pairIN5Yosys5RTLIL8IdStringEiEEC2Ev(ptr noundef nonnull align 1 dereferenceable(1) %0) unnamed_addr #6 comdat align 2 {
  %2 = alloca ptr, align 8
  store ptr %0, ptr %2, align 8, !tbaa !132
  ret void
}

; Function Attrs: mustprogress nounwind uwtable
define linkonce_odr void @_ZNSt12_Vector_baseISt4pairIN5Yosys5RTLIL8IdStringEiESaIS4_EE17_Vector_impl_dataC2Ev(ptr noundef nonnull align 8 dereferenceable(24) %0) unnamed_addr #6 comdat align 2 {
  %2 = alloca ptr, align 8
  store ptr %0, ptr %2, align 8, !tbaa !127
  %3 = load ptr, ptr %2, align 8
  %4 = getelementptr inbounds nuw %"struct.std::_Vector_base<std::pair<Yosys::RTLIL::IdString, int>, std::allocator<std::pair<Yosys::RTLIL::IdString, int>>>::_Vector_impl_data", ptr %3, i32 0, i32 0
  store ptr null, ptr %4, align 8, !tbaa !129
  %5 = getelementptr inbounds nuw %"struct.std::_Vector_base<std::pair<Yosys::RTLIL::IdString, int>, std::allocator<std::pair<Yosys::RTLIL::IdString, int>>>::_Vector_impl_data", ptr %3, i32 0, i32 1
  store ptr null, ptr %5, align 8, !tbaa !130
  %6 = getelementptr inbounds nuw %"struct.std::_Vector_base<std::pair<Yosys::RTLIL::IdString, int>, std::allocator<std::pair<Yosys::RTLIL::IdString, int>>>::_Vector_impl_data", ptr %3, i32 0, i32 2
  store ptr null, ptr %6, align 8, !tbaa !131
  ret void
}

; Function Attrs: mustprogress nounwind uwtable
define linkonce_odr void @_ZNSaISt4pairIN5Yosys5RTLIL8IdStringEiEEC2Ev(ptr noundef nonnull align 1 dereferenceable(1) %0) unnamed_addr #6 comdat align 2 {
  %2 = alloca ptr, align 8
  store ptr %0, ptr %2, align 8, !tbaa !125
  %3 = load ptr, ptr %2, align 8
  call void @_ZNSt15__new_allocatorISt4pairIN5Yosys5RTLIL8IdStringEiEEC2Ev(ptr noundef nonnull align 1 dereferenceable(1) %3) #3
  ret void
}

; Function Attrs: mustprogress nounwind uwtable
define linkonce_odr void @_ZNSt12_Vector_baseISt4pairIN5Yosys5RTLIL8IdStringEiESaIS4_EE12_Vector_implC2Ev(ptr noundef nonnull align 8 dereferenceable(24) %0) unnamed_addr #6 comdat align 2 {
  %2 = alloca ptr, align 8
  store ptr %0, ptr %2, align 8, !tbaa !123
  %3 = load ptr, ptr %2, align 8
  call void @_ZNSaISt4pairIN5Yosys5RTLIL8IdStringEiEEC2Ev(ptr noundef nonnull align 1 dereferenceable(1) %3) #3
  call void @_ZNSt12_Vector_baseISt4pairIN5Yosys5RTLIL8IdStringEiESaIS4_EE17_Vector_impl_dataC2Ev(ptr noundef nonnull align 8 dereferenceable(24) %3) #3
  ret void
}

; Function Attrs: mustprogress nounwind uwtable
define linkonce_odr void @_ZNSt12_Vector_baseISt4pairIN5Yosys5RTLIL8IdStringEiESaIS4_EEC2Ev(ptr noundef nonnull align 8 dereferenceable(24) %0) unnamed_addr #6 comdat align 2 {
  %2 = alloca ptr, align 8
  store ptr %0, ptr %2, align 8, !tbaa !121
  %3 = load ptr, ptr %2, align 8
  %4 = getelementptr inbounds nuw %"struct.std::_Vector_base", ptr %3, i32 0, i32 0
  call void @_ZNSt12_Vector_baseISt4pairIN5Yosys5RTLIL8IdStringEiESaIS4_EE12_Vector_implC2Ev(ptr noundef nonnull align 8 dereferenceable(24) %4) #3
  ret void
}

; Function Attrs: mustprogress nounwind uwtable
define linkonce_odr void @_ZNSt6vectorISt4pairIN5Yosys5RTLIL8IdStringEiESaIS4_EEC2Ev(ptr noundef nonnull align 8 dereferenceable(24) %0) unnamed_addr #6 comdat align 2 {
  %2 = alloca ptr, align 8
  store ptr %0, ptr %2, align 8, !tbaa !27
  %3 = load ptr, ptr %2, align 8
  call void @_ZNSt12_Vector_baseISt4pairIN5Yosys5RTLIL8IdStringEiESaIS4_EEC2Ev(ptr noundef nonnull align 8 dereferenceable(24) %3) #3
  ret void
}

; Function Attrs: inlinehint mustprogress nounwind uwtable
define linkonce_odr void @_ZN5Yosys5RTLIL8IdStringC2Ev(ptr noundef nonnull align 4 dereferenceable(4) %0) unnamed_addr #5 comdat align 2 {
  %2 = alloca ptr, align 8
  store ptr %0, ptr %2, align 8, !tbaa !24
  %3 = load ptr, ptr %2, align 8
  %4 = getelementptr inbounds nuw %"struct.Yosys::RTLIL::IdString", ptr %3, i32 0, i32 0
  store i32 0, ptr %4, align 4, !tbaa !26
  ret void
}

; Function Attrs: mustprogress uwtable
define void @_ZN5Yosys7AigNodeC2Ev(ptr noundef nonnull align 8 dereferenceable(48) %0) unnamed_addr #4 align 2 {
  %2 = alloca ptr, align 8
  store ptr %0, ptr %2, align 8, !tbaa !6
  %3 = load ptr, ptr %2, align 8
  %4 = getelementptr inbounds nuw %"struct.Yosys::AigNode", ptr %3, i32 0, i32 0
  call void @_ZN5Yosys5RTLIL8IdStringC2Ev(ptr noundef nonnull align 4 dereferenceable(4) %4)
  %5 = getelementptr inbounds nuw %"struct.Yosys::AigNode", ptr %3, i32 0, i32 5
  call void @_ZNSt6vectorISt4pairIN5Yosys5RTLIL8IdStringEiESaIS4_EEC2Ev(ptr noundef nonnull align 8 dereferenceable(24) %5) #3
  %6 = getelementptr inbounds nuw %"struct.Yosys::AigNode", ptr %3, i32 0, i32 1
  store i32 -1, ptr %6, align 4, !tbaa !11
  %7 = getelementptr inbounds nuw %"struct.Yosys::AigNode", ptr %3, i32 0, i32 2
  store i8 0, ptr %7, align 8, !tbaa !21
  %8 = getelementptr inbounds nuw %"struct.Yosys::AigNode", ptr %3, i32 0, i32 3
  store i32 -1, ptr %8, align 4, !tbaa !22
  %9 = getelementptr inbounds nuw %"struct.Yosys::AigNode", ptr %3, i32 0, i32 4
  store i32 -1, ptr %9, align 8, !tbaa !23
  ret void
}