; Function Attrs: mustprogress nofree norecurse nosync nounwind willreturn memory(argmem: write) uwtable
define void @_ZN5Yosys7AigNodeC2Ev(ptr noundef nonnull writeonly align 8 captures(none) dereferenceable(48) initializes((0, 9), (12, 20), (24, 48)) %0) unnamed_addr #3 align 2 {
  store i32 0, ptr %0, align 8, !tbaa !6
  %2 = getelementptr inbounds nuw i8, ptr %0, i64 24
  tail call void @llvm.memset.p0.i64(ptr noundef nonnull align 8 dereferenceable(24) %2, i8 0, i64 24, i1 false)
  %3 = getelementptr inbounds nuw i8, ptr %0, i64 4
  store i32 -1, ptr %3, align 4, !tbaa !11
  %4 = getelementptr inbounds nuw i8, ptr %0, i64 8
  store i8 0, ptr %4, align 8, !tbaa !20
  %5 = getelementptr inbounds nuw i8, ptr %0, i64 12
  store i32 -1, ptr %5, align 4, !tbaa !21
  %6 = getelementptr inbounds nuw i8, ptr %0, i64 16
  store i32 -1, ptr %6, align 8, !tbaa !22
  ret void
}